target datalayout = "e-m:e-p270:32:32-p271:32:32-p272:64:64-i64:64-i128:128-f80:128-n8:16:32:64-S128"
target triple = "x86_64-pc-linux-gnu"

%struct.EVP_ARIA_GCM_CTX = type { %union.anon, i32, i32, %struct.gcm128_context, ptr, i32, i32, i32, i32 }
%union.anon = type { double, [272 x i8] }
%struct.gcm128_context = type { %union.anon.0, %union.anon.0, %union.anon.0, %union.anon.0, %union.anon.0, %union.anon.0, [16 x %struct.u128], %struct.gcm_funcs_st, i32, i32, ptr, ptr, [48 x i8] }
%union.anon.0 = type { [2 x i64] }
%struct.u128 = type { i64, i64 }
%struct.gcm_funcs_st = type { ptr, ptr, ptr }

; Function Attrs: nounwind uwtable
define internal i32 @aria_gcm_tls_cipher(ptr noundef %0, ptr noundef %1, ptr noundef %2, i64 noundef %3) #0 {
  %5 = alloca i32, align 4
  %6 = alloca ptr, align 8
  %7 = alloca ptr, align 8
  %8 = alloca ptr, align 8
  %9 = alloca i64, align 8
  %10 = alloca ptr, align 8
  %11 = alloca i32, align 4
  %12 = alloca i32, align 4
  store ptr %0, ptr %6, align 8, !tbaa !3
  store ptr %1, ptr %7, align 8, !tbaa !8
  store ptr %2, ptr %8, align 8, !tbaa !8
  store i64 %3, ptr %9, align 8, !tbaa !12
  call void @llvm.lifetime.start.p0(i64 8, ptr %10) #4
  %13 = load ptr, ptr %6, align 8, !tbaa !3
  %14 = call ptr @EVP_CIPHER_CTX_get_cipher_data(ptr noundef %13)
  store ptr %14, ptr %10, align 8, !tbaa !41
  call void @llvm.lifetime.start.p0(i64 4, ptr %11) #4
  store i32 -1, ptr %11, align 4, !tbaa !10
  %15 = load ptr, ptr %7, align 8, !tbaa !8
  %16 = load ptr, ptr %8, align 8, !tbaa !8
  %17 = icmp ne ptr %15, %16
  br i1 %17, label %21, label %18

18:                                               ; preds = %4
  %19 = load i64, ptr %9, align 8, !tbaa !12
  %20 = icmp ult i64 %19, 24
  br i1 %20, label %21, label %22

21:                                               ; preds = %18, %4
  store i32 -1, ptr %5, align 4
  store i32 1, ptr %12, align 4
  br label %108

22:                                               ; preds = %18
  %23 = load ptr, ptr %6, align 8, !tbaa !3
  %24 = load ptr, ptr %6, align 8, !tbaa !3
  %25 = call i32 @EVP_CIPHER_CTX_is_encrypting(ptr noundef %24)
  %26 = icmp ne i32 %25, 0
  %27 = select i1 %26, i32 19, i32 24
  %28 = load ptr, ptr %7, align 8, !tbaa !8
  %29 = call i32 @EVP_CIPHER_CTX_ctrl(ptr noundef %23, i32 noundef %27, i32 noundef 8, ptr noundef %28)
  %30 = icmp sle i32 %29, 0
  br i1 %30, label %31, label %32

31:                                               ; preds = %22
  br label %102

32:                                               ; preds = %22
  %33 = load ptr, ptr %10, align 8, !tbaa !41
  %34 = getelementptr inbounds nuw %struct.EVP_ARIA_GCM_CTX, ptr %33, i32 0, i32 3
  %35 = load ptr, ptr %6, align 8, !tbaa !3
  %36 = call ptr @EVP_CIPHER_CTX_buf_noconst(ptr noundef %35)
  %37 = load ptr, ptr %10, align 8, !tbaa !41
  %38 = getelementptr inbounds nuw %struct.EVP_ARIA_GCM_CTX, ptr %37, i32 0, i32 8
  %39 = load i32, ptr %38, align 4, !tbaa !50
  %40 = sext i32 %39 to i64
  %41 = call i32 @CRYPTO_gcm128_aad(ptr noundef %34, ptr noundef %36, i64 noundef %40)
  %42 = icmp ne i32 %41, 0
  br i1 %42, label %43, label %44

43:                                               ; preds = %32
  br label %102

44:                                               ; preds = %32
  %45 = load ptr, ptr %8, align 8, !tbaa !8
  %46 = getelementptr inbounds i8, ptr %45, i64 8
  store ptr %46, ptr %8, align 8, !tbaa !8
  %47 = load ptr, ptr %7, align 8, !tbaa !8
  %48 = getelementptr inbounds i8, ptr %47, i64 8
  store ptr %48, ptr %7, align 8, !tbaa !8
  %49 = load i64, ptr %9, align 8, !tbaa !12
  %50 = sub i64 %49, 24
  store i64 %50, ptr %9, align 8, !tbaa !12
  %51 = load ptr, ptr %6, align 8, !tbaa !3
  %52 = call i32 @EVP_CIPHER_CTX_is_encrypting(ptr noundef %51)
  %53 = icmp ne i32 %52, 0
  br i1 %53, label %54, label %74

54:                                               ; preds = %44
  %55 = load ptr, ptr %10, align 8, !tbaa !41
  %56 = getelementptr inbounds nuw %struct.EVP_ARIA_GCM_CTX, ptr %55, i32 0, i32 3
  %57 = load ptr, ptr %8, align 8, !tbaa !8
  %58 = load ptr, ptr %7, align 8, !tbaa !8
  %59 = load i64, ptr %9, align 8, !tbaa !12
  %60 = call i32 @CRYPTO_gcm128_encrypt(ptr noundef %56, ptr noundef %57, ptr noundef %58, i64 noundef %59)
  %61 = icmp ne i32 %60, 0
  br i1 %61, label %62, label %63

62:                                               ; preds = %54
  br label %102

63:                                               ; preds = %54
  %64 = load i64, ptr %9, align 8, !tbaa !12
  %65 = load ptr, ptr %7, align 8, !tbaa !8
  %66 = getelementptr inbounds nuw i8, ptr %65, i64 %64
  store ptr %66, ptr %7, align 8, !tbaa !8
  %67 = load ptr, ptr %10, align 8, !tbaa !41
  %68 = getelementptr inbounds nuw %struct.EVP_ARIA_GCM_CTX, ptr %67, i32 0, i32 3
  %69 = load ptr, ptr %7, align 8, !tbaa !8
  call void @CRYPTO_gcm128_tag(ptr noundef %68, ptr noundef %69, i64 noundef 16)
  %70 = load i64, ptr %9, align 8, !tbaa !12
  %71 = add i64 %70, 8
  %72 = add i64 %71, 16
  %73 = trunc i64 %72 to i32
  store i32 %73, ptr %11, align 4, !tbaa !10
  br label %101

74:                                               ; preds = %44
  %75 = load ptr, ptr %10, align 8, !tbaa !41
  %76 = getelementptr inbounds nuw %struct.EVP_ARIA_GCM_CTX, ptr %75, i32 0, i32 3
  %77 = load ptr, ptr %8, align 8, !tbaa !8
  %78 = load ptr, ptr %7, align 8, !tbaa !8
  %79 = load i64, ptr %9, align 8, !tbaa !12
  %80 = call i32 @CRYPTO_gcm128_decrypt(ptr noundef %76, ptr noundef %77, ptr noundef %78, i64 noundef %79)
  %81 = icmp ne i32 %80, 0
  br i1 %81, label %82, label %83

82:                                               ; preds = %74
  br label %102

83:                                               ; preds = %74
  %84 = load ptr, ptr %10, align 8, !tbaa !41
  %85 = getelementptr inbounds nuw %struct.EVP_ARIA_GCM_CTX, ptr %84, i32 0, i32 3
  %86 = load ptr, ptr %6, align 8, !tbaa !3
  %87 = call ptr @EVP_CIPHER_CTX_buf_noconst(ptr noundef %86)
  call void @CRYPTO_gcm128_tag(ptr noundef %85, ptr noundef %87, i64 noundef 16)
  %88 = load ptr, ptr %6, align 8, !tbaa !3
  %89 = call ptr @EVP_CIPHER_CTX_buf_noconst(ptr noundef %88)
  %90 = load ptr, ptr %8, align 8, !tbaa !8
  %91 = load i64, ptr %9, align 8, !tbaa !12
  %92 = getelementptr inbounds nuw i8, ptr %90, i64 %91
  %93 = call i32 @CRYPTO_memcmp(ptr noundef %89, ptr noundef %92, i64 noundef 16)
  %94 = icmp ne i32 %93, 0
  br i1 %94, label %95, label %98

95:                                               ; preds = %83
  %96 = load ptr, ptr %7, align 8, !tbaa !8
  %97 = load i64, ptr %9, align 8, !tbaa !12
  call void @OPENSSL_cleanse(ptr noundef %96, i64 noundef %97)
  br label %102

98:                                               ; preds = %83
  %99 = load i64, ptr %9, align 8, !tbaa !12
  %100 = trunc i64 %99 to i32
  store i32 %100, ptr %11, align 4, !tbaa !10
  br label %101

101:                                              ; preds = %98, %63
  br label %102

102:                                              ; preds = %101, %95, %82, %62, %43, %31
  %103 = load ptr, ptr %10, align 8, !tbaa !41
  %104 = getelementptr inbounds nuw %struct.EVP_ARIA_GCM_CTX, ptr %103, i32 0, i32 2
  store i32 0, ptr %104, align 4, !tbaa !42
  %105 = load ptr, ptr %10, align 8, !tbaa !41
  %106 = getelementptr inbounds nuw %struct.EVP_ARIA_GCM_CTX, ptr %105, i32 0, i32 8
  store i32 -1, ptr %106, align 4, !tbaa !50
  %107 = load i32, ptr %11, align 4, !tbaa !10
  store i32 %107, ptr %5, align 4
  store i32 1, ptr %12, align 4
  br label %108

108:                                              ; preds = %102, %21
  call void @llvm.lifetime.end.p0(i64 4, ptr %11) #4
  call void @llvm.lifetime.end.p0(i64 8, ptr %10) #4
  %109 = load i32, ptr %5, align 4
  ret i32 %109
}

; Function Attrs: nounwind uwtable
define internal i32 @aria_gcm_cipher(ptr noundef %0, ptr noundef %1, ptr noundef %2, i64 noundef %3) #0 {
  %5 = alloca i32, align 4
  %6 = alloca ptr, align 8
  %7 = alloca ptr, align 8
  %8 = alloca ptr, align 8
  %9 = alloca i64, align 8
  %10 = alloca ptr, align 8
  %11 = alloca i32, align 4
  store ptr %0, ptr %6, align 8, !tbaa !3
  store ptr %1, ptr %7, align 8, !tbaa !8
  store ptr %2, ptr %8, align 8, !tbaa !8
  store i64 %3, ptr %9, align 8, !tbaa !12
  call void @llvm.lifetime.start.p0(i64 8, ptr %10) #4
  %12 = load ptr, ptr %6, align 8, !tbaa !3
  %13 = call ptr @EVP_CIPHER_CTX_get_cipher_data(ptr noundef %12)
  store ptr %13, ptr %10, align 8, !tbaa !41
  %14 = load ptr, ptr %10, align 8, !tbaa !41
  %15 = getelementptr inbounds nuw %struct.EVP_ARIA_GCM_CTX, ptr %14, i32 0, i32 1
  %16 = load i32, ptr %15, align 8, !tbaa !48
  %17 = icmp ne i32 %16, 0
  br i1 %17, label %19, label %18

18:                                               ; preds = %4
  store i32 -1, ptr %5, align 4
  store i32 1, ptr %11, align 4
  br label %113

19:                                               ; preds = %4
  %20 = load ptr, ptr %10, align 8, !tbaa !41
  %21 = getelementptr inbounds nuw %struct.EVP_ARIA_GCM_CTX, ptr %20, i32 0, i32 8
  %22 = load i32, ptr %21, align 4, !tbaa !50
  %23 = icmp sge i32 %22, 0
  br i1 %23, label %24, label %30

24:                                               ; preds = %19
  %25 = load ptr, ptr %6, align 8, !tbaa !3
  %26 = load ptr, ptr %7, align 8, !tbaa !8
  %27 = load ptr, ptr %8, align 8, !tbaa !8
  %28 = load i64, ptr %9, align 8, !tbaa !12
  %29 = call i32 @aria_gcm_tls_cipher(ptr noundef %25, ptr noundef %26, ptr noundef %27, i64 noundef %28)
  store i32 %29, ptr %5, align 4
  store i32 1, ptr %11, align 4
  br label %113

30:                                               ; preds = %19
  %31 = load ptr, ptr %10, align 8, !tbaa !41
  %32 = getelementptr inbounds nuw %struct.EVP_ARIA_GCM_CTX, ptr %31, i32 0, i32 2
  %33 = load i32, ptr %32, align 4, !tbaa !42
  %34 = icmp ne i32 %33, 0
  br i1 %34, label %36, label %35

35:                                               ; preds = %30
  store i32 -1, ptr %5, align 4
  store i32 1, ptr %11, align 4
  br label %113

36:                                               ; preds = %30
  %37 = load ptr, ptr %8, align 8, !tbaa !8
  %38 = icmp ne ptr %37, null
  br i1 %38, label %39, label %79

39:                                               ; preds = %36
  %40 = load ptr, ptr %7, align 8, !tbaa !8
  %41 = icmp eq ptr %40, null
  br i1 %41, label %42, label %51

42:                                               ; preds = %39
  %43 = load ptr, ptr %10, align 8, !tbaa !41
  %44 = getelementptr inbounds nuw %struct.EVP_ARIA_GCM_CTX, ptr %43, i32 0, i32 3
  %45 = load ptr, ptr %8, align 8, !tbaa !8
  %46 = load i64, ptr %9, align 8, !tbaa !12
  %47 = call i32 @CRYPTO_gcm128_aad(ptr noundef %44, ptr noundef %45, i64 noundef %46)
  %48 = icmp ne i32 %47, 0
  br i1 %48, label %49, label %50

49:                                               ; preds = %42
  store i32 -1, ptr %5, align 4
  store i32 1, ptr %11, align 4
  br label %113

50:                                               ; preds = %42
  br label %76

51:                                               ; preds = %39
  %52 = load ptr, ptr %6, align 8, !tbaa !3
  %53 = call i32 @EVP_CIPHER_CTX_is_encrypting(ptr noundef %52)
  %54 = icmp ne i32 %53, 0
  br i1 %54, label %55, label %65

55:                                               ; preds = %51
  %56 = load ptr, ptr %10, align 8, !tbaa !41
  %57 = getelementptr inbounds nuw %struct.EVP_ARIA_GCM_CTX, ptr %56, i32 0, i32 3
  %58 = load ptr, ptr %8, align 8, !tbaa !8
  %59 = load ptr, ptr %7, align 8, !tbaa !8
  %60 = load i64, ptr %9, align 8, !tbaa !12
  %61 = call i32 @CRYPTO_gcm128_encrypt(ptr noundef %57, ptr noundef %58, ptr noundef %59, i64 noundef %60)
  %62 = icmp ne i32 %61, 0
  br i1 %62, label %63, label %64

63:                                               ; preds = %55
  store i32 -1, ptr %5, align 4
  store i32 1, ptr %11, align 4
  br label %113

64:                                               ; preds = %55
  br label %75

65:                                               ; preds = %51
  %66 = load ptr, ptr %10, align 8, !tbaa !41
  %67 = getelementptr inbounds nuw %struct.EVP_ARIA_GCM_CTX, ptr %66, i32 0, i32 3
  %68 = load ptr, ptr %8, align 8, !tbaa !8
  %69 = load ptr, ptr %7, align 8, !tbaa !8
  %70 = load i64, ptr %9, align 8, !tbaa !12
  %71 = call i32 @CRYPTO_gcm128_decrypt(ptr noundef %67, ptr noundef %68, ptr noundef %69, i64 noundef %70)
  %72 = icmp ne i32 %71, 0
  br i1 %72, label %73, label %74

73:                                               ; preds = %65
  store i32 -1, ptr %5, align 4
  store i32 1, ptr %11, align 4
  br label %113

74:                                               ; preds = %65
  br label %75

75:                                               ; preds = %74, %64
  br label %76

76:                                               ; preds = %75, %50
  %77 = load i64, ptr %9, align 8, !tbaa !12
  %78 = trunc i64 %77 to i32
  store i32 %78, ptr %5, align 4
  store i32 1, ptr %11, align 4
  br label %113

79:                                               ; preds = %36
  %80 = load ptr, ptr %6, align 8, !tbaa !3
  %81 = call i32 @EVP_CIPHER_CTX_is_encrypting(ptr noundef %80)
  %82 = icmp ne i32 %81, 0
  br i1 %82, label %104, label %83

83:                                               ; preds = %79
  %84 = load ptr, ptr %10, align 8, !tbaa !41
  %85 = getelementptr inbounds nuw %struct.EVP_ARIA_GCM_CTX, ptr %84, i32 0, i32 6
  %86 = load i32, ptr %85, align 4, !tbaa !51
  %87 = icmp slt i32 %86, 0
  br i1 %87, label %88, label %89

88:                                               ; preds = %83
  store i32 -1, ptr %5, align 4
  store i32 1, ptr %11, align 4
  br label %113

89:                                               ; preds = %83
  %90 = load ptr, ptr %10, align 8, !tbaa !41
  %91 = getelementptr inbounds nuw %struct.EVP_ARIA_GCM_CTX, ptr %90, i32 0, i32 3
  %92 = load ptr, ptr %6, align 8, !tbaa !3
  %93 = call ptr @EVP_CIPHER_CTX_buf_noconst(ptr noundef %92)
  %94 = load ptr, ptr %10, align 8, !tbaa !41
  %95 = getelementptr inbounds nuw %struct.EVP_ARIA_GCM_CTX, ptr %94, i32 0, i32 6
  %96 = load i32, ptr %95, align 4, !tbaa !51
  %97 = sext i32 %96 to i64
  %98 = call i32 @CRYPTO_gcm128_finish(ptr noundef %91, ptr noundef %93, i64 noundef %97)
  %99 = icmp ne i32 %98, 0
  br i1 %99, label %100, label %101

100:                                              ; preds = %89
  store i32 -1, ptr %5, align 4
  store i32 1, ptr %11, align 4
  br label %113

101:                                              ; preds = %89
  %102 = load ptr, ptr %10, align 8, !tbaa !41
  %103 = getelementptr inbounds nuw %struct.EVP_ARIA_GCM_CTX, ptr %102, i32 0, i32 2
  store i32 0, ptr %103, align 4, !tbaa !42
  store i32 0, ptr %5, align 4
  store i32 1, ptr %11, align 4
  br label %113

104:                                              ; preds = %79
  %105 = load ptr, ptr %10, align 8, !tbaa !41
  %106 = getelementptr inbounds nuw %struct.EVP_ARIA_GCM_CTX, ptr %105, i32 0, i32 3
  %107 = load ptr, ptr %6, align 8, !tbaa !3
  %108 = call ptr @EVP_CIPHER_CTX_buf_noconst(ptr noundef %107)
  call void @CRYPTO_gcm128_tag(ptr noundef %106, ptr noundef %108, i64 noundef 16)
  %109 = load ptr, ptr %10, align 8, !tbaa !41
  %110 = getelementptr inbounds nuw %struct.EVP_ARIA_GCM_CTX, ptr %109, i32 0, i32 6
  store i32 16, ptr %110, align 4, !tbaa !51
  %111 = load ptr, ptr %10, align 8, !tbaa !41
  %112 = getelementptr inbounds nuw %struct.EVP_ARIA_GCM_CTX, ptr %111, i32 0, i32 2
  store i32 0, ptr %112, align 4, !tbaa !42
  store i32 0, ptr %5, align 4
  store i32 1, ptr %11, align 4
  br label %113

113:                                              ; preds = %104, %101, %100, %88, %76, %73, %63, %49, %35, %24, %18
  call void @llvm.lifetime.end.p0(i64 8, ptr %10) #4
  %114 = load i32, ptr %5, align 4
  ret i32 %114
}