; Function Attrs: nounwind uwtable
define internal noundef i32 @aria_gcm_cipher(ptr noundef %0, ptr noundef %1, ptr noundef %2, i64 noundef %3) #1 {
  %5 = tail call ptr @EVP_CIPHER_CTX_get_cipher_data(ptr noundef %0) #6
  %6 = getelementptr inbounds nuw i8, ptr %5, i64 280
  %7 = load i32, ptr %6, align 8, !tbaa !39
  %.not = icmp eq i32 %7, 0
  br i1 %.not, label %aria_gcm_tls_cipher.exit, label %8

8:                                                ; preds = %4
  %9 = getelementptr inbounds nuw i8, ptr %5, i64 756
  %10 = load i32, ptr %9, align 4, !tbaa !41
  %11 = icmp sgt i32 %10, -1
  br i1 %11, label %12, label %51

12:                                               ; preds = %8
  %13 = tail call ptr @EVP_CIPHER_CTX_get_cipher_data(ptr noundef %0) #6
  %14 = icmp ne ptr %1, %2
  %15 = icmp ult i64 %3, 24
  %or.cond.i = or i1 %14, %15
  br i1 %or.cond.i, label %aria_gcm_tls_cipher.exit, label %16

16:                                               ; preds = %12
  %17 = tail call i32 @EVP_CIPHER_CTX_is_encrypting(ptr noundef %0) #6
  %.not.i = icmp eq i32 %17, 0
  %18 = select i1 %.not.i, i32 24, i32 19
  %19 = tail call i32 @EVP_CIPHER_CTX_ctrl(ptr noundef %0, i32 noundef %18, i32 noundef 8, ptr noundef %1) #6
  %20 = icmp slt i32 %19, 1
  br i1 %20, label %48, label %21

21:                                               ; preds = %16
  %22 = getelementptr inbounds nuw i8, ptr %13, i64 288
  %23 = tail call ptr @EVP_CIPHER_CTX_buf_noconst(ptr noundef %0) #6
  %24 = getelementptr inbounds nuw i8, ptr %13, i64 756
  %25 = load i32, ptr %24, align 4, !tbaa !41
  %26 = sext i32 %25 to i64
  %27 = tail call i32 @CRYPTO_gcm128_aad(ptr noundef nonnull %22, ptr noundef %23, i64 noundef %26) #6
  %.not43.i = icmp eq i32 %27, 0
  br i1 %.not43.i, label %28, label %48

28:                                               ; preds = %21
  %29 = getelementptr inbounds nuw i8, ptr %2, i64 8
  %30 = getelementptr inbounds nuw i8, ptr %1, i64 8
  %31 = add i64 %3, -24
  %32 = tail call i32 @EVP_CIPHER_CTX_is_encrypting(ptr noundef %0) #6
  %.not44.i = icmp eq i32 %32, 0
  br i1 %.not44.i, label %38, label %33

33:                                               ; preds = %28
  %34 = tail call i32 @CRYPTO_gcm128_encrypt(ptr noundef nonnull %22, ptr noundef nonnull %29, ptr noundef nonnull %30, i64 noundef %31) #6
  %.not47.i = icmp eq i32 %34, 0
  br i1 %.not47.i, label %35, label %48

35:                                               ; preds = %33
  %36 = getelementptr inbounds nuw i8, ptr %30, i64 %31
  tail call void @CRYPTO_gcm128_tag(ptr noundef nonnull %22, ptr noundef nonnull %36, i64 noundef 16) #6
  %37 = trunc i64 %3 to i32
  br label %48

38:                                               ; preds = %28
  %39 = tail call i32 @CRYPTO_gcm128_decrypt(ptr noundef nonnull %22, ptr noundef nonnull %29, ptr noundef nonnull %30, i64 noundef %31) #6
  %.not45.i = icmp eq i32 %39, 0
  br i1 %.not45.i, label %40, label %48

40:                                               ; preds = %38
  %41 = tail call ptr @EVP_CIPHER_CTX_buf_noconst(ptr noundef %0) #6
  tail call void @CRYPTO_gcm128_tag(ptr noundef nonnull %22, ptr noundef %41, i64 noundef 16) #6
  %42 = tail call ptr @EVP_CIPHER_CTX_buf_noconst(ptr noundef %0) #6
  %43 = getelementptr inbounds nuw i8, ptr %29, i64 %31
  %44 = tail call i32 @CRYPTO_memcmp(ptr noundef %42, ptr noundef nonnull %43, i64 noundef 16) #6
  %.not46.i = icmp eq i32 %44, 0
  br i1 %.not46.i, label %46, label %45

45:                                               ; preds = %40
  tail call void @OPENSSL_cleanse(ptr noundef nonnull %30, i64 noundef %31) #6
  br label %48

46:                                               ; preds = %40
  %47 = trunc i64 %31 to i32
  br label %48

48:                                               ; preds = %46, %45, %38, %35, %33, %21, %16
  %.0.i = phi i32 [ -1, %16 ], [ -1, %21 ], [ -1, %33 ], [ %37, %35 ], [ -1, %38 ], [ -1, %45 ], [ %47, %46 ]
  %49 = getelementptr inbounds nuw i8, ptr %13, i64 284
  store i32 0, ptr %49, align 4, !tbaa !33
  %50 = getelementptr inbounds nuw i8, ptr %13, i64 756
  store i32 -1, ptr %50, align 4, !tbaa !41
  br label %aria_gcm_tls_cipher.exit

51:                                               ; preds = %8
  %52 = getelementptr inbounds nuw i8, ptr %5, i64 284
  %53 = load i32, ptr %52, align 4, !tbaa !33
  %.not35 = icmp eq i32 %53, 0
  br i1 %.not35, label %aria_gcm_tls_cipher.exit, label %54

54:                                               ; preds = %51
  %.not36 = icmp eq ptr %2, null
  br i1 %.not36, label %69, label %55

55:                                               ; preds = %54
  %56 = icmp eq ptr %1, null
  br i1 %56, label %57, label %60

57:                                               ; preds = %55
  %58 = getelementptr inbounds nuw i8, ptr %5, i64 288
  %59 = tail call i32 @CRYPTO_gcm128_aad(ptr noundef nonnull %58, ptr noundef nonnull %2, i64 noundef %3) #6
  %.not42 = icmp eq i32 %59, 0
  br i1 %.not42, label %67, label %aria_gcm_tls_cipher.exit

60:                                               ; preds = %55
  %61 = tail call i32 @EVP_CIPHER_CTX_is_encrypting(ptr noundef %0) #6
  %.not39 = icmp eq i32 %61, 0
  %62 = getelementptr inbounds nuw i8, ptr %5, i64 288
  br i1 %.not39, label %65, label %63

63:                                               ; preds = %60
  %64 = tail call i32 @CRYPTO_gcm128_encrypt(ptr noundef nonnull %62, ptr noundef nonnull %2, ptr noundef nonnull %1, i64 noundef %3) #6
  %.not41 = icmp eq i32 %64, 0
  br i1 %.not41, label %67, label %aria_gcm_tls_cipher.exit

65:                                               ; preds = %60
  %66 = tail call i32 @CRYPTO_gcm128_decrypt(ptr noundef nonnull %62, ptr noundef nonnull %2, ptr noundef nonnull %1, i64 noundef %3) #6
  %.not40 = icmp eq i32 %66, 0
  br i1 %.not40, label %67, label %aria_gcm_tls_cipher.exit

67:                                               ; preds = %63, %65, %57
  %68 = trunc i64 %3 to i32
  br label %aria_gcm_tls_cipher.exit

69:                                               ; preds = %54
  %70 = tail call i32 @EVP_CIPHER_CTX_is_encrypting(ptr noundef %0) #6
  %.not37 = icmp eq i32 %70, 0
  br i1 %.not37, label %71, label %82

71:                                               ; preds = %69
  %72 = getelementptr inbounds nuw i8, ptr %5, i64 748
  %73 = load i32, ptr %72, align 4, !tbaa !42
  %74 = icmp slt i32 %73, 0
  br i1 %74, label %aria_gcm_tls_cipher.exit, label %75

75:                                               ; preds = %71
  %76 = getelementptr inbounds nuw i8, ptr %5, i64 288
  %77 = tail call ptr @EVP_CIPHER_CTX_buf_noconst(ptr noundef %0) #6
  %78 = load i32, ptr %72, align 4, !tbaa !42
  %79 = sext i32 %78 to i64
  %80 = tail call i32 @CRYPTO_gcm128_finish(ptr noundef nonnull %76, ptr noundef %77, i64 noundef %79) #6
  %.not38 = icmp eq i32 %80, 0
  br i1 %.not38, label %81, label %aria_gcm_tls_cipher.exit

81:                                               ; preds = %75
  store i32 0, ptr %52, align 4, !tbaa !33
  br label %aria_gcm_tls_cipher.exit

82:                                               ; preds = %69
  %83 = getelementptr inbounds nuw i8, ptr %5, i64 288
  %84 = tail call ptr @EVP_CIPHER_CTX_buf_noconst(ptr noundef %0) #6
  tail call void @CRYPTO_gcm128_tag(ptr noundef nonnull %83, ptr noundef %84, i64 noundef 16) #6
  %85 = getelementptr inbounds nuw i8, ptr %5, i64 748
  store i32 16, ptr %85, align 4, !tbaa !42
  store i32 0, ptr %52, align 4, !tbaa !33
  br label %aria_gcm_tls_cipher.exit

aria_gcm_tls_cipher.exit:                         ; preds = %48, %12, %75, %71, %65, %63, %57, %51, %4, %82, %81, %67
  %.0 = phi i32 [ %68, %67 ], [ 0, %82 ], [ 0, %81 ], [ -1, %4 ], [ -1, %51 ], [ -1, %57 ], [ -1, %63 ], [ -1, %65 ], [ -1, %71 ], [ -1, %75 ], [ %.0.i, %48 ], [ -1, %12 ]
  ret i32 %.0
}